target datalayout = "e-m:e-p270:32:32-p271:32:32-p272:64:64-i64:64-i128:128-f80:128-n8:16:32:64-S128"
target triple = "x86_64-pc-linux-gnu"

%struct.IPAddressFamily_st = type { ptr, ptr }
%struct.asn1_string_st = type { i32, i32, ptr, i64 }

; Function Attrs: nounwind uwtable
define internal i32 @IPAddressFamily_cmp(ptr noundef %0, ptr noundef %1) #0 {
  %3 = alloca ptr, align 8
  %4 = alloca ptr, align 8
  %5 = alloca ptr, align 8
  %6 = alloca ptr, align 8
  %7 = alloca i32, align 4
  %8 = alloca i32, align 4
  store ptr %0, ptr %3, align 8, !tbaa !22
  store ptr %1, ptr %4, align 8, !tbaa !22
  call void @llvm.lifetime.start.p0(i64 8, ptr %5) #9
  %9 = load ptr, ptr %3, align 8, !tbaa !22
  %10 = load ptr, ptr %9, align 8, !tbaa !24
  %11 = getelementptr inbounds nuw %struct.IPAddressFamily_st, ptr %10, i32 0, i32 0
  %12 = load ptr, ptr %11, align 8, !tbaa !26
  store ptr %12, ptr %5, align 8, !tbaa !62
  call void @llvm.lifetime.start.p0(i64 8, ptr %6) #9
  %13 = load ptr, ptr %4, align 8, !tbaa !22
  %14 = load ptr, ptr %13, align 8, !tbaa !24
  %15 = getelementptr inbounds nuw %struct.IPAddressFamily_st, ptr %14, i32 0, i32 0
  %16 = load ptr, ptr %15, align 8, !tbaa !26
  store ptr %16, ptr %6, align 8, !tbaa !62
  call void @llvm.lifetime.start.p0(i64 4, ptr %7) #9
  %17 = load ptr, ptr %5, align 8, !tbaa !62
  %18 = getelementptr inbounds nuw %struct.asn1_string_st, ptr %17, i32 0, i32 0
  %19 = load i32, ptr %18, align 8, !tbaa !33
  %20 = load ptr, ptr %6, align 8, !tbaa !62
  %21 = getelementptr inbounds nuw %struct.asn1_string_st, ptr %20, i32 0, i32 0
  %22 = load i32, ptr %21, align 8, !tbaa !33
  %23 = icmp sle i32 %19, %22
  br i1 %23, label %24, label %28

24:                                               ; preds = %2
  %25 = load ptr, ptr %5, align 8, !tbaa !62
  %26 = getelementptr inbounds nuw %struct.asn1_string_st, ptr %25, i32 0, i32 0
  %27 = load i32, ptr %26, align 8, !tbaa !33
  br label %32

28:                                               ; preds = %2
  %29 = load ptr, ptr %6, align 8, !tbaa !62
  %30 = getelementptr inbounds nuw %struct.asn1_string_st, ptr %29, i32 0, i32 0
  %31 = load i32, ptr %30, align 8, !tbaa !33
  br label %32

32:                                               ; preds = %28, %24
  %33 = phi i32 [ %27, %24 ], [ %31, %28 ]
  store i32 %33, ptr %7, align 4, !tbaa !37
  call void @llvm.lifetime.start.p0(i64 4, ptr %8) #9
  %34 = load ptr, ptr %5, align 8, !tbaa !62
  %35 = getelementptr inbounds nuw %struct.asn1_string_st, ptr %34, i32 0, i32 2
  %36 = load ptr, ptr %35, align 8, !tbaa !29
  %37 = load ptr, ptr %6, align 8, !tbaa !62
  %38 = getelementptr inbounds nuw %struct.asn1_string_st, ptr %37, i32 0, i32 2
  %39 = load ptr, ptr %38, align 8, !tbaa !29
  %40 = load i32, ptr %7, align 4, !tbaa !37
  %41 = sext i32 %40 to i64
  %42 = call i32 @memcmp(ptr noundef %36, ptr noundef %39, i64 noundef %41) #10
  store i32 %42, ptr %8, align 4, !tbaa !37
  %43 = load i32, ptr %8, align 4, !tbaa !37
  %44 = icmp ne i32 %43, 0
  br i1 %44, label %45, label %47

45:                                               ; preds = %32
  %46 = load i32, ptr %8, align 4, !tbaa !37
  br label %55

47:                                               ; preds = %32
  %48 = load ptr, ptr %5, align 8, !tbaa !62
  %49 = getelementptr inbounds nuw %struct.asn1_string_st, ptr %48, i32 0, i32 0
  %50 = load i32, ptr %49, align 8, !tbaa !33
  %51 = load ptr, ptr %6, align 8, !tbaa !62
  %52 = getelementptr inbounds nuw %struct.asn1_string_st, ptr %51, i32 0, i32 0
  %53 = load i32, ptr %52, align 8, !tbaa !33
  %54 = sub nsw i32 %50, %53
  br label %55

55:                                               ; preds = %47, %45
  %56 = phi i32 [ %46, %45 ], [ %54, %47 ]
  call void @llvm.lifetime.end.p0(i64 4, ptr %8) #9
  call void @llvm.lifetime.end.p0(i64 4, ptr %7) #9
  call void @llvm.lifetime.end.p0(i64 8, ptr %6) #9
  call void @llvm.lifetime.end.p0(i64 8, ptr %5) #9
  ret i32 %56
}