; Function Attrs: mustprogress nofree nounwind willreturn memory(read, inaccessiblemem: none) uwtable
define internal i32 @IPAddressFamily_cmp(ptr noundef readonly captures(none) %0, ptr noundef readonly captures(none) %1) #6 {
  %3 = load ptr, ptr %0, align 8, !tbaa !41
  %4 = load ptr, ptr %3, align 8, !tbaa !3
  %5 = load ptr, ptr %1, align 8, !tbaa !41
  %6 = load ptr, ptr %5, align 8, !tbaa !3
  %7 = load i32, ptr %4, align 8, !tbaa !15
  %8 = load i32, ptr %6, align 8, !tbaa !15
  %. = tail call i32 @llvm.smin.i32(i32 %7, i32 %8)
  %9 = getelementptr inbounds nuw i8, ptr %4, i64 8
  %10 = load ptr, ptr %9, align 8, !tbaa !10
  %11 = getelementptr inbounds nuw i8, ptr %6, i64 8
  %12 = load ptr, ptr %11, align 8, !tbaa !10
  %13 = sext i32 %. to i64
  %14 = tail call i32 @memcmp(ptr noundef %10, ptr noundef %12, i64 noundef %13) #16
  %.not14 = icmp eq i32 %14, 0
  %15 = sub nsw i32 %7, %8
  %spec.select = select i1 %.not14, i32 %15, i32 %14
  ret i32 %spec.select
}